; Function Attrs: nounwind uwtable
define dso_local void @load_commit_graph_info(ptr noundef %0, ptr noundef %1) local_unnamed_addr #0 {
  %3 = alloca i32, align 4
  %4 = tail call fastcc i32 @prepare_commit_graph(ptr noundef %0)
  %.not.i = icmp eq i32 %4, 0
  br i1 %.not.i, label %repo_find_commit_pos_in_graph.exit.thread, label %5

5:                                                ; preds = %2
  %6 = getelementptr inbounds nuw i8, ptr %0, i64 16
  %7 = load ptr, ptr %6, align 8, !tbaa !9
  %8 = getelementptr inbounds nuw i8, ptr %7, i64 96
  %9 = load ptr, ptr %8, align 8, !tbaa !123
  %10 = getelementptr i8, ptr %1, i64 64
  %.val.i.i.i = load i32, ptr %10, align 8, !tbaa !49
  %11 = udiv i32 %.val.i.i.i, 32766
  %12 = urem i32 %.val.i.i.i, 32766
  %13 = load i32, ptr @commit_graph_data_slab.2, align 8, !tbaa !55
  %.not.i.i.i.i.i = icmp ugt i32 %13, %11
  br i1 %.not.i.i.i.i.i, label %._crit_edge4.i.i.i.i.i, label %commit_graph_position.exit.thread.i.i

._crit_edge4.i.i.i.i.i:                           ; preds = %5
  %.pre.i.i.i.i.i = load ptr, ptr @commit_graph_data_slab.3, align 8, !tbaa !58
  %14 = zext nneg i32 %11 to i64
  %15 = getelementptr inbounds nuw ptr, ptr %.pre.i.i.i.i.i, i64 %14
  %16 = load ptr, ptr %15, align 8, !tbaa !59
  %.not35.i.i.i.i.i = icmp eq ptr %16, null
  br i1 %.not35.i.i.i.i.i, label %commit_graph_position.exit.thread.i.i, label %commit_graph_position.exit.i.i

commit_graph_position.exit.i.i:                   ; preds = %._crit_edge4.i.i.i.i.i
  %17 = zext nneg i32 %12 to i64
  %18 = getelementptr inbounds nuw %struct.commit_graph_data, ptr %16, i64 %17
  %19 = load i32, ptr %18, align 8, !tbaa !61
  %.not.i.i = icmp eq i32 %19, -1
  br i1 %.not.i.i, label %commit_graph_position.exit.thread.i.i, label %repo_find_commit_pos_in_graph.exit.thread7

commit_graph_position.exit.thread.i.i:            ; preds = %commit_graph_position.exit.i.i, %._crit_edge4.i.i.i.i.i, %5
  %20 = getelementptr inbounds nuw i8, ptr %1, i64 4
  call void @llvm.lifetime.start.p0(i64 4, ptr nonnull %3) #24
  %.not12.i.i.i = icmp eq ptr %9, null
  br i1 %.not12.i.i.i, label %repo_find_commit_pos_in_graph.exit.thread12, label %.lr.ph.i.i.i

.lr.ph.i.i.i:                                     ; preds = %commit_graph_position.exit.thread.i.i, %29
  %.013.i.i.i = phi ptr [ %31, %29 ], [ %9, %commit_graph_position.exit.thread.i.i ]
  %21 = getelementptr inbounds nuw i8, ptr %.013.i.i.i, i64 96
  %22 = load ptr, ptr %21, align 8, !tbaa !95
  %23 = getelementptr inbounds nuw i8, ptr %.013.i.i.i, i64 104
  %24 = load ptr, ptr %23, align 8, !tbaa !99
  %25 = getelementptr inbounds nuw i8, ptr %.013.i.i.i, i64 16
  %26 = load i8, ptr %25, align 8, !tbaa !81
  %27 = zext i8 %26 to i64
  %28 = call i32 @bsearch_hash(ptr noundef nonnull %20, ptr noundef %22, ptr noundef %24, i64 noundef %27, ptr noundef nonnull %3) #24
  %.not9.i.i.i = icmp eq i32 %28, 0
  br i1 %.not9.i.i.i, label %29, label %repo_find_commit_pos_in_graph.exit

29:                                               ; preds = %.lr.ph.i.i.i
  %30 = getelementptr inbounds nuw i8, ptr %.013.i.i.i, i64 88
  %31 = load ptr, ptr %30, align 8, !tbaa !114
  %.not.i.i.i = icmp eq ptr %31, null
  br i1 %.not.i.i.i, label %repo_find_commit_pos_in_graph.exit.thread12, label %.lr.ph.i.i.i, !llvm.loop !131

repo_find_commit_pos_in_graph.exit.thread12:      ; preds = %29, %commit_graph_position.exit.thread.i.i
  call void @llvm.lifetime.end.p0(i64 4, ptr nonnull %3) #24
  br label %repo_find_commit_pos_in_graph.exit.thread

repo_find_commit_pos_in_graph.exit:               ; preds = %.lr.ph.i.i.i
  %32 = load i32, ptr %3, align 4, !tbaa !47
  %33 = getelementptr inbounds nuw i8, ptr %.013.i.i.i, i64 80
  %34 = load i32, ptr %33, align 8, !tbaa !116
  %35 = add i32 %34, %32
  call void @llvm.lifetime.end.p0(i64 4, ptr nonnull %3) #24
  %.pre = load ptr, ptr %6, align 8, !tbaa !9
  %.phi.trans.insert = getelementptr inbounds nuw i8, ptr %.pre, i64 96
  %.pre18 = load ptr, ptr %.phi.trans.insert, align 8, !tbaa !123
  br label %repo_find_commit_pos_in_graph.exit.thread7

repo_find_commit_pos_in_graph.exit.thread7:       ; preds = %commit_graph_position.exit.i.i, %repo_find_commit_pos_in_graph.exit
  %36 = phi ptr [ %.pre18, %repo_find_commit_pos_in_graph.exit ], [ %9, %commit_graph_position.exit.i.i ]
  %.111 = phi i32 [ %35, %repo_find_commit_pos_in_graph.exit ], [ %19, %commit_graph_position.exit.i.i ]
  call fastcc void @fill_commit_graph_info(ptr noundef nonnull %1, ptr noundef %36, i32 noundef %.111)
  br label %repo_find_commit_pos_in_graph.exit.thread

repo_find_commit_pos_in_graph.exit.thread:        ; preds = %2, %repo_find_commit_pos_in_graph.exit.thread12, %repo_find_commit_pos_in_graph.exit.thread7
  ret void
}